target datalayout = "e-m:e-p270:32:32-p271:32:32-p272:64:64-i64:64-i128:128-f80:128-n8:16:32:64-S128"
target triple = "x86_64-pc-linux-gnu"

%"struct.llvm::DWARFDebugNames::Header" = type { i64, i8, i16, i32, i32, i32, i32, i32, i32, i32, %"class.llvm::SmallString" }
%"class.llvm::SmallString" = type { %"class.llvm::SmallVector.73" }
%"class.llvm::SmallVector.73" = type { %"class.llvm::SmallVectorImpl.74", %"struct.llvm::SmallVectorStorage.78" }
%"class.llvm::SmallVectorImpl.74" = type { %"class.llvm::SmallVectorTemplateBase.75" }
%"class.llvm::SmallVectorTemplateBase.75" = type { %"class.llvm::SmallVectorTemplateCommon.76" }
%"class.llvm::SmallVectorTemplateCommon.76" = type { %"class.llvm::SmallVectorBase.77" }
%"class.llvm::SmallVectorBase.77" = type { ptr, i64, i64 }
%"struct.llvm::SmallVectorStorage.78" = type { [8 x i8] }
%"struct.llvm::DWARFDebugNames::DWARFDebugNamesOffsets" = type { i64, i64, i64, i64, i64, i64 }

; Function Attrs: mustprogress nounwind uwtable
define linkonce_odr hidden noundef zeroext i8 @_ZN4llvm5dwarf22getDwarfOffsetByteSizeENS0_11DwarfFormatE(i8 noundef zeroext %0) #0 comdat {
  %2 = alloca i8, align 1
  %3 = alloca i8, align 1
  store i8 %0, ptr %3, align 1
  %4 = load i8, ptr %3, align 1
  %5 = zext i8 %4 to i32
  switch i32 %5, label %8 [
    i32 0, label %6
    i32 1, label %7
  ]

6:                                                ; preds = %1
  store i8 4, ptr %2, align 1
  br label %9

7:                                                ; preds = %1
  store i8 8, ptr %2, align 1
  br label %9

8:                                                ; preds = %1
  unreachable

9:                                                ; preds = %7, %6
  %10 = load i8, ptr %2, align 1
  ret i8 %10
}

; Function Attrs: mustprogress nounwind uwtable
define dso_local void @_ZN4llvm5dwarf21findDebugNamesOffsetsEmRKNS_15DWARFDebugNames6HeaderE(ptr dead_on_unwind noalias writable sret(%"struct.llvm::DWARFDebugNames::DWARFDebugNamesOffsets") align 8 %0, i64 noundef %1, ptr noundef nonnull align 8 dereferenceable(72) %2) #0 {
  %4 = alloca i64, align 8
  %5 = alloca ptr, align 8
  %6 = alloca i64, align 8
  store i64 %1, ptr %4, align 8
  store ptr %2, ptr %5, align 8
  %7 = load ptr, ptr %5, align 8
  %8 = getelementptr inbounds nuw %"struct.llvm::DWARFDebugNames::Header", ptr %7, i32 0, i32 1
  %9 = load i8, ptr %8, align 8
  %10 = call noundef zeroext i8 @_ZN4llvm5dwarf22getDwarfOffsetByteSizeENS0_11DwarfFormatE(i8 noundef zeroext %9)
  %11 = zext i8 %10 to i64
  store i64 %11, ptr %6, align 8
  %12 = load i64, ptr %4, align 8
  %13 = getelementptr inbounds nuw %"struct.llvm::DWARFDebugNames::DWARFDebugNamesOffsets", ptr %0, i32 0, i32 0
  store i64 %12, ptr %13, align 8
  %14 = getelementptr inbounds nuw %"struct.llvm::DWARFDebugNames::DWARFDebugNamesOffsets", ptr %0, i32 0, i32 0
  %15 = load i64, ptr %14, align 8
  %16 = load ptr, ptr %5, align 8
  %17 = getelementptr inbounds nuw %"struct.llvm::DWARFDebugNames::Header", ptr %16, i32 0, i32 3
  %18 = load i32, ptr %17, align 4
  %19 = zext i32 %18 to i64
  %20 = load i64, ptr %6, align 8
  %21 = mul i64 %19, %20
  %22 = add i64 %15, %21
  %23 = load ptr, ptr %5, align 8
  %24 = getelementptr inbounds nuw %"struct.llvm::DWARFDebugNames::Header", ptr %23, i32 0, i32 4
  %25 = load i32, ptr %24, align 8
  %26 = zext i32 %25 to i64
  %27 = load i64, ptr %6, align 8
  %28 = mul i64 %26, %27
  %29 = add i64 %22, %28
  %30 = load ptr, ptr %5, align 8
  %31 = getelementptr inbounds nuw %"struct.llvm::DWARFDebugNames::Header", ptr %30, i32 0, i32 5
  %32 = load i32, ptr %31, align 4
  %33 = mul i32 %32, 8
  %34 = zext i32 %33 to i64
  %35 = add i64 %29, %34
  %36 = getelementptr inbounds nuw %"struct.llvm::DWARFDebugNames::DWARFDebugNamesOffsets", ptr %0, i32 0, i32 1
  store i64 %35, ptr %36, align 8
  %37 = getelementptr inbounds nuw %"struct.llvm::DWARFDebugNames::DWARFDebugNamesOffsets", ptr %0, i32 0, i32 1
  %38 = load i64, ptr %37, align 8
  %39 = load ptr, ptr %5, align 8
  %40 = getelementptr inbounds nuw %"struct.llvm::DWARFDebugNames::Header", ptr %39, i32 0, i32 6
  %41 = load i32, ptr %40, align 8
  %42 = mul i32 %41, 4
  %43 = zext i32 %42 to i64
  %44 = add i64 %38, %43
  %45 = getelementptr inbounds nuw %"struct.llvm::DWARFDebugNames::DWARFDebugNamesOffsets", ptr %0, i32 0, i32 2
  store i64 %44, ptr %45, align 8
  %46 = getelementptr inbounds nuw %"struct.llvm::DWARFDebugNames::DWARFDebugNamesOffsets", ptr %0, i32 0, i32 2
  %47 = load i64, ptr %46, align 8
  %48 = load ptr, ptr %5, align 8
  %49 = getelementptr inbounds nuw %"struct.llvm::DWARFDebugNames::Header", ptr %48, i32 0, i32 6
  %50 = load i32, ptr %49, align 8
  %51 = icmp ugt i32 %50, 0
  br i1 %51, label %52, label %57

52:                                               ; preds = %3
  %53 = load ptr, ptr %5, align 8
  %54 = getelementptr inbounds nuw %"struct.llvm::DWARFDebugNames::Header", ptr %53, i32 0, i32 7
  %55 = load i32, ptr %54, align 4
  %56 = mul i32 %55, 4
  br label %58

57:                                               ; preds = %3
  br label %58

58:                                               ; preds = %57, %52
  %59 = phi i32 [ %56, %52 ], [ 0, %57 ]
  %60 = zext i32 %59 to i64
  %61 = add i64 %47, %60
  %62 = getelementptr inbounds nuw %"struct.llvm::DWARFDebugNames::DWARFDebugNamesOffsets", ptr %0, i32 0, i32 3
  store i64 %61, ptr %62, align 8
  %63 = getelementptr inbounds nuw %"struct.llvm::DWARFDebugNames::DWARFDebugNamesOffsets", ptr %0, i32 0, i32 3
  %64 = load i64, ptr %63, align 8
  %65 = load ptr, ptr %5, align 8
  %66 = getelementptr inbounds nuw %"struct.llvm::DWARFDebugNames::Header", ptr %65, i32 0, i32 7
  %67 = load i32, ptr %66, align 4
  %68 = zext i32 %67 to i64
  %69 = load i64, ptr %6, align 8
  %70 = mul i64 %68, %69
  %71 = add i64 %64, %70
  %72 = getelementptr inbounds nuw %"struct.llvm::DWARFDebugNames::DWARFDebugNamesOffsets", ptr %0, i32 0, i32 4
  store i64 %71, ptr %72, align 8
  %73 = getelementptr inbounds nuw %"struct.llvm::DWARFDebugNames::DWARFDebugNamesOffsets", ptr %0, i32 0, i32 4
  %74 = load i64, ptr %73, align 8
  %75 = load ptr, ptr %5, align 8
  %76 = getelementptr inbounds nuw %"struct.llvm::DWARFDebugNames::Header", ptr %75, i32 0, i32 7
  %77 = load i32, ptr %76, align 4
  %78 = zext i32 %77 to i64
  %79 = load i64, ptr %6, align 8
  %80 = mul i64 %78, %79
  %81 = add i64 %74, %80
  %82 = load ptr, ptr %5, align 8
  %83 = getelementptr inbounds nuw %"struct.llvm::DWARFDebugNames::Header", ptr %82, i32 0, i32 8
  %84 = load i32, ptr %83, align 8
  %85 = zext i32 %84 to i64
  %86 = add i64 %81, %85
  %87 = getelementptr inbounds nuw %"struct.llvm::DWARFDebugNames::DWARFDebugNamesOffsets", ptr %0, i32 0, i32 5
  store i64 %86, ptr %87, align 8
  ret void
}