; Function Attrs: mustprogress nofree norecurse nosync nounwind willreturn memory(argmem: readwrite) uwtable
define dso_local void @_ZN4llvm5dwarf21findDebugNamesOffsetsEmRKNS_15DWARFDebugNames6HeaderE(ptr dead_on_unwind noalias writable writeonly sret(%"struct.llvm::DWARFDebugNames::DWARFDebugNamesOffsets") align 8 captures(none) initializes((0, 48)) %0, i64 noundef %1, ptr noundef nonnull readonly align 8 captures(none) dereferenceable(72) %2) local_unnamed_addr #10 {
  %4 = getelementptr inbounds nuw i8, ptr %2, i64 8
  %5 = load i8, ptr %4, align 8
  %switch.i = icmp eq i8 %5, 0
  store i64 %1, ptr %0, align 8
  %6 = getelementptr inbounds nuw i8, ptr %2, i64 12
  %7 = load i32, ptr %6, align 4
  %8 = zext i32 %7 to i64
  %9 = select i1 %switch.i, i64 2, i64 3
  %10 = getelementptr inbounds nuw i8, ptr %2, i64 16
  %11 = load i32, ptr %10, align 8
  %12 = zext i32 %11 to i64
  %13 = add nuw nsw i64 %8, %12
  %14 = shl nuw nsw i64 %13, %9
  %15 = add i64 %14, %1
  %16 = getelementptr inbounds nuw i8, ptr %2, i64 20
  %17 = load i32, ptr %16, align 4
  %18 = shl i32 %17, 3
  %19 = zext i32 %18 to i64
  %20 = add i64 %15, %19
  %21 = getelementptr inbounds nuw i8, ptr %0, i64 8
  store i64 %20, ptr %21, align 8
  %22 = getelementptr inbounds nuw i8, ptr %2, i64 24
  %23 = load i32, ptr %22, align 8
  %24 = shl i32 %23, 2
  %25 = zext i32 %24 to i64
  %26 = add i64 %20, %25
  %27 = getelementptr inbounds nuw i8, ptr %0, i64 16
  store i64 %26, ptr %27, align 8
  %.not = icmp eq i32 %23, 0
  %28 = getelementptr inbounds nuw i8, ptr %2, i64 28
  %29 = load i32, ptr %28, align 4
  %30 = shl i32 %29, 2
  %narrow = select i1 %.not, i32 0, i32 %30
  %31 = zext i32 %narrow to i64
  %32 = add i64 %26, %31
  %33 = getelementptr inbounds nuw i8, ptr %0, i64 24
  store i64 %32, ptr %33, align 8
  %34 = zext i32 %29 to i64
  %35 = shl nuw nsw i64 %34, %9
  %36 = add i64 %32, %35
  %37 = getelementptr inbounds nuw i8, ptr %0, i64 32
  store i64 %36, ptr %37, align 8
  %38 = getelementptr inbounds nuw i8, ptr %2, i64 32
  %39 = load i32, ptr %38, align 8
  %40 = zext i32 %39 to i64
  %41 = add nuw nsw i64 %35, %40
  %42 = add i64 %41, %36
  %43 = getelementptr inbounds nuw i8, ptr %0, i64 40
  store i64 %42, ptr %43, align 8
  ret void
}